; Function Attrs: mustprogress nofree nounwind willreturn memory(readwrite, inaccessiblemem: write) uwtable
define internal { double, double } @_ZL15helmert_reverse5PJ_XYP8PJconsts(double %0, double %1, ptr noundef readonly captures(none) %2) #3 {
  %4 = getelementptr inbounds nuw i8, ptr %2, i64 88
  %5 = load ptr, ptr %4, align 8, !tbaa !47
  %6 = getelementptr inbounds nuw i8, ptr %5, i64 192
  %7 = load double, ptr %6, align 8, !tbaa !73
  %8 = tail call double @cos(double noundef %7) #10, !tbaa !83
  %9 = getelementptr inbounds nuw i8, ptr %5, i64 168
  %10 = load double, ptr %9, align 8, !tbaa !72
  %11 = fdiv double %8, %10
  %12 = tail call double @sin(double noundef %7) #10, !tbaa !83
  %13 = fdiv double %12, %10
  %14 = getelementptr inbounds nuw i8, ptr %5, i64 24
  %15 = load double, ptr %14, align 8, !tbaa !50
  %16 = fsub double %0, %15
  %17 = getelementptr inbounds nuw i8, ptr %5, i64 32
  %18 = load double, ptr %17, align 8, !tbaa !54
  %19 = fsub double %1, %18
  %20 = fneg double %13
  %21 = fmul double %19, %20
  %22 = tail call double @llvm.fmuladd.f64(double %16, double %11, double %21)
  %23 = fmul double %11, %19
  %24 = tail call double @llvm.fmuladd.f64(double %16, double %13, double %23)
  %.fca.0.insert = insertvalue { double, double } poison, double %22, 0
  %.fca.1.insert = insertvalue { double, double } %.fca.0.insert, double %24, 1
  ret { double, double } %.fca.1.insert
}